Certificate:
    Data:
        Version: 3 (0x2)
        Serial Number: 3 (0x3)
        Signature Algorithm: sha256WithRSAEncryption
        Issuer: C=PT, ST=Coimbra, L=Coimbra, O=UC, OU=DEI, CN=ca/emailAddress=uc2024156583@student.uc.pt
        Validity
            Not Before: Mar  3 20:52:55 2025 GMT
            Not After : Mar  3 20:52:55 2026 GMT
        Subject: C=PT, ST=Coimbra, O=UC, OU=DEI, CN=client_apache/emailAddress=uc2024156583@student.uc.pt
        Subject Public Key Info:
            Public Key Algorithm: rsaEncryption
                Public-Key: (2048 bit)
                Modulus:
                    00:db:a3:3e:c0:97:4b:19:ef:8a:a3:a8:a6:93:4e:
                    4f:34:bf:54:15:28:f6:89:3f:32:54:0a:26:a2:25:
                    ef:1d:d9:fb:ac:6c:b3:a8:37:8f:3e:d8:1d:c4:b0:
                    27:c4:c9:54:da:29:8e:fa:73:d9:8d:9e:d4:38:77:
                    21:bc:d9:e2:22:87:76:6c:00:c1:72:2c:73:ac:fe:
                    26:44:69:28:fe:26:20:06:c8:ad:8d:33:fc:e7:20:
                    e1:51:62:71:b2:95:78:82:77:01:a4:ff:60:40:42:
                    30:a7:e1:4f:d3:35:49:15:ba:18:53:60:e9:e2:ce:
                    45:ad:1a:8a:a9:5e:a1:e8:b0:97:fc:64:c6:5f:b2:
                    cf:2e:12:88:a5:84:74:9e:84:ef:15:cf:8f:0e:44:
                    29:91:f7:c4:ec:1e:83:62:a2:34:51:7e:4e:67:6e:
                    a8:2d:49:a7:df:bb:a8:c0:06:d9:3b:1e:5c:2b:9f:
                    eb:f1:37:50:55:ab:6a:f2:9d:4f:68:05:92:08:61:
                    2e:16:a0:88:45:a7:2b:3c:a8:7f:7f:f3:d4:bc:ee:
                    1f:c2:97:ca:b8:6d:5b:86:67:1c:0e:fa:64:98:2d:
                    12:ae:9f:98:00:bc:bd:1c:6c:90:6d:f1:93:61:45:
                    cf:4e:0a:bf:0b:85:99:33:9d:b4:31:80:6c:fc:12:
                    d1:9f
                Exponent: 65537 (0x10001)
        X509v3 extensions:
            X509v3 Basic Constraints: 
                CA:FALSE
            X509v3 Subject Key Identifier: 
                43:D6:95:75:41:06:F8:EB:15:7C:CD:4D:AF:43:3C:A1:C6:FB:C9:7A
            X509v3 Authority Key Identifier: 
                8D:43:37:5E:13:22:1B:B7:C7:0C:8C:29:E7:E4:C4:D0:5A:D0:DA:FB
    Signature Algorithm: sha256WithRSAEncryption
    Signature Value:
        52:8b:3e:0f:ce:32:8e:e3:00:ac:a2:13:77:07:26:38:8c:e1:
        27:cf:7c:72:f9:05:ba:bd:aa:9f:67:c0:14:99:eb:56:02:61:
        3c:9f:d2:8e:f9:01:9c:02:60:25:2a:af:10:d3:da:94:95:4e:
        7e:44:87:f8:9a:5e:89:6e:be:7e:ce:b0:4a:d3:63:fd:2d:fb:
        06:8c:be:41:52:b8:20:81:94:89:53:8f:14:62:17:4f:3d:fb:
        ed:64:3f:a5:bf:a2:af:f6:09:98:20:da:be:3c:ad:0c:38:9c:
        53:eb:9e:dd:28:fa:1c:43:2d:d0:8f:62:f0:d3:60:bd:12:ab:
        88:ac:7a:82:28:e0:bc:ba:34:63:29:5e:30:db:42:91:4d:20:
        88:e0:9c:4a:64:bf:2a:fb:27:19:eb:7b:4a:04:cc:2c:17:eb:
        05:d7:be:f1:c3:be:d7:a1:1c:54:d0:7b:aa:5a:5f:44:7b:25:
        cb:d2:be:7a:16:e9:b3:c6:b6:fe:28:19:67:08:77:38:60:17:
        f3:91:36:ec:3b:5e:35:5a:87:8b:c7:9d:fd:31:c2:10:b4:26:
        3a:4c:54:e5:f0:2c:b4:5a:90:b4:29:80:07:4c:8a:54:67:d3:
        18:65:67:56:e3:15:49:f9:44:10:74:cd:ae:8e:0f:8a:c4:e8:
        3f:ae:cb:6b
-----BEGIN CERTIFICATE-----
MIIDyjCCArKgAwIBAgIBAzANBgkqhkiG9w0BAQsFADCBhDELMAkGA1UEBhMCUFQx
EDAOBgNVBAgMB0NvaW1icmExEDAOBgNVBAcMB0NvaW1icmExCzAJBgNVBAoMAlVD
MQwwCgYDVQQLDANERUkxCzAJBgNVBAMMAmNhMSkwJwYJKoZIhvcNAQkBFhp1YzIw
MjQxNTY1ODNAc3R1ZGVudC51Yy5wdDAeFw0yNTAzMDMyMDUyNTVaFw0yNjAzMDMy
MDUyNTVaMH0xCzAJBgNVBAYTAlBUMRAwDgYDVQQIDAdDb2ltYnJhMQswCQYDVQQK
DAJVQzEMMAoGA1UECwwDREVJMRYwFAYDVQQDDA1jbGllbnRfYXBhY2hlMSkwJwYJ
KoZIhvcNAQkBFhp1YzIwMjQxNTY1ODNAc3R1ZGVudC51Yy5wdDCCASIwDQYJKoZI
hvcNAQEBBQADggEPADCCAQoCggEBANujPsCXSxnviqOoppNOTzS/VBUo9ok/MlQK
JqIl7x3Z+6xss6g3jz7YHcSwJ8TJVNopjvpz2Y2e1Dh3IbzZ4iKHdmwAwXIsc6z+
JkRpKP4mIAbIrY0z/Ocg4VFicbKVeIJ3AaT/YEBCMKfhT9M1SRW6GFNg6eLORa0a
iqleoeiwl/xkxl+yzy4SiKWEdJ6E7xXPjw5EKZH3xOweg2KiNFF+TmduqC1Jp9+7
qMAG2TseXCuf6/E3UFWravKdT2gFkghhLhagiEWnKzyof3/z1LzuH8KXyrhtW4Zn
HA76ZJgtEq6fmAC8vRxskG3xk2FFz04KvwuFmTOdtDGAbPwS0Z8CAwEAAaNNMEsw
CQYDVR0TBAIwADAdBgNVHQ4EFgQUQ9aVdUEG+OsVfM1Nr0M8ocb7yXowHwYDVR0j
BBgwFoAUjUM3XhMiG7fHDIwp5+TE0FrQ2vswDQYJKoZIhvcNAQELBQADggEBAFKL
Pg/OMo7jAKyiE3cHJjiM4SfPfHL5Bbq9qp9nwBSZ61YCYTyf0o75AZwCYCUqrxDT
2pSVTn5Eh/iaXoluvn7OsErTY/0t+waMvkFSuCCBlIlTjxRiF089++1kP6W/oq/2
CZgg2r48rQw4nFPrnt0o+hxDLdCPYvDTYL0Sq4iseoIo4Ly6NGMpXjDbQpFNIIjg
nEpkvyr7Jxnre0oEzCwX6wXXvvHDvtehHFTQe6paX0R7JcvSvnoW6bPGtv4oGWcI
dzhgF/ORNuw7XjVah4vHnf0xwhC0JjpMVOXwLLRakLQpgAdMilRn0xhlZ1bjFUn5
RBB0za6OD4rE6D+uy2s=
-----END CERTIFICATE-----
