Certificate:
    Data:
        Version: 3 (0x2)
        Serial Number: 4 (0x4)
        Signature Algorithm: sha256WithRSAEncryption
        Issuer: C=PT, ST=Coimbra, L=Coimbra, O=UC, OU=DEI, CN=ca/emailAddress=uc2024156583@student.uc.pt
        Validity
            Not Before: Mar  3 20:54:12 2025 GMT
            Not After : Mar  3 20:54:12 2026 GMT
        Subject: C=PT, ST=Coimbra, O=UC, OU=DEI, CN=ocsp/emailAddress=uc2024156583@student.uc.pt
        Subject Public Key Info:
            Public Key Algorithm: rsaEncryption
                Public-Key: (2048 bit)
                Modulus:
                    00:af:a8:6e:82:32:4c:69:e5:2e:3a:88:02:4d:45:
                    4c:d1:52:b3:57:eb:a5:d8:4d:0e:b9:28:7e:e6:18:
                    65:63:57:0a:0d:bb:92:9b:91:cc:d1:ea:df:69:62:
                    8e:65:07:0c:63:48:82:5d:7d:08:74:2b:a8:c7:3f:
                    67:04:65:f4:b4:a6:a3:f5:38:57:d2:f8:d4:b3:08:
                    c2:32:29:41:85:d6:15:c4:98:97:9a:a4:c2:ea:aa:
                    0a:5b:18:83:cb:d4:0c:d7:71:6f:2d:43:9b:a3:42:
                    c1:e6:57:9b:fe:22:5a:ee:ad:6a:21:bf:e8:04:90:
                    9e:02:cc:2a:5a:cb:d7:4f:01:c3:fa:3b:7d:5f:b9:
                    f8:f3:30:0a:b8:08:e4:4d:6e:7b:90:07:06:e2:d3:
                    b2:dd:0d:de:b5:bc:8a:f5:f4:d9:c6:49:29:86:85:
                    bb:ea:ea:5a:c8:ae:f2:a5:b0:85:b9:0c:e3:f3:7f:
                    bb:02:be:f4:16:80:67:67:26:4f:58:22:96:53:f2:
                    fd:cb:78:7f:80:33:0f:a8:86:02:8e:1f:e1:73:fc:
                    da:b6:ad:ce:00:b4:25:39:49:00:ba:ff:25:cd:41:
                    5d:9f:4b:e5:0f:8a:a0:ae:56:f7:75:e8:d9:2e:0c:
                    c8:12:0f:cf:3a:4c:c8:6a:a4:b2:3e:f1:34:bb:3f:
                    98:4d
                Exponent: 65537 (0x10001)
        X509v3 extensions:
            X509v3 Basic Constraints: 
                CA:FALSE
            X509v3 Subject Key Identifier: 
                6B:53:65:C6:AA:E8:72:90:56:D3:DA:1D:27:47:86:52:15:82:39:47
            X509v3 Authority Key Identifier: 
                8D:43:37:5E:13:22:1B:B7:C7:0C:8C:29:E7:E4:C4:D0:5A:D0:DA:FB
    Signature Algorithm: sha256WithRSAEncryption
    Signature Value:
        6f:d6:94:e3:c1:f1:e5:1a:2a:88:e6:51:27:b0:51:7a:82:bd:
        8e:0f:8e:bc:96:7b:c5:40:5d:07:88:53:fe:b6:e0:eb:a5:2f:
        84:52:1e:49:8e:76:00:f9:93:db:a1:8f:4c:0f:f7:98:57:be:
        33:9d:66:ec:1b:2c:17:9c:c2:38:76:87:40:bd:6a:74:fb:60:
        71:87:9b:0d:83:f9:a6:3a:7b:08:97:c9:f6:9f:11:30:c3:b0:
        fd:5e:b6:c8:4a:89:b6:f6:2d:18:04:9d:9b:4b:64:73:f8:66:
        c8:03:c3:93:9c:52:d6:e7:75:fc:ae:23:28:c5:7b:59:0b:b2:
        8b:4e:67:59:29:d3:c8:12:ed:0e:9c:85:2f:f5:09:9f:89:b6:
        8e:c6:13:e6:39:90:97:92:89:86:75:3c:56:18:15:23:6a:9f:
        8a:b4:ea:a2:74:d1:45:4f:b5:b4:59:78:f2:a5:cd:a5:1b:a7:
        64:24:bb:cb:d2:ad:84:3b:9a:91:12:d6:b7:e0:39:7f:ac:dd:
        43:f7:1a:23:7a:b2:77:aa:9d:04:8b:bd:86:ab:9a:5d:a8:d0:
        72:75:50:f0:17:e3:6e:1f:82:40:41:69:82:ed:51:1e:92:78:
        30:46:d6:a5:26:0a:53:eb:38:42:b1:8a:35:f6:f9:04:e8:75:
        98:66:44:36
-----BEGIN CERTIFICATE-----
MIIDwTCCAqmgAwIBAgIBBDANBgkqhkiG9w0BAQsFADCBhDELMAkGA1UEBhMCUFQx
EDAOBgNVBAgMB0NvaW1icmExEDAOBgNVBAcMB0NvaW1icmExCzAJBgNVBAoMAlVD
MQwwCgYDVQQLDANERUkxCzAJBgNVBAMMAmNhMSkwJwYJKoZIhvcNAQkBFhp1YzIw
MjQxNTY1ODNAc3R1ZGVudC51Yy5wdDAeFw0yNTAzMDMyMDU0MTJaFw0yNjAzMDMy
MDU0MTJaMHQxCzAJBgNVBAYTAlBUMRAwDgYDVQQIDAdDb2ltYnJhMQswCQYDVQQK
DAJVQzEMMAoGA1UECwwDREVJMQ0wCwYDVQQDDARvY3NwMSkwJwYJKoZIhvcNAQkB
Fhp1YzIwMjQxNTY1ODNAc3R1ZGVudC51Yy5wdDCCASIwDQYJKoZIhvcNAQEBBQAD
ggEPADCCAQoCggEBAK+oboIyTGnlLjqIAk1FTNFSs1frpdhNDrkofuYYZWNXCg27
kpuRzNHq32lijmUHDGNIgl19CHQrqMc/ZwRl9LSmo/U4V9L41LMIwjIpQYXWFcSY
l5qkwuqqClsYg8vUDNdxby1Dm6NCweZXm/4iWu6taiG/6ASQngLMKlrL108Bw/o7
fV+5+PMwCrgI5E1ue5AHBuLTst0N3rW8ivX02cZJKYaFu+rqWsiu8qWwhbkM4/N/
uwK+9BaAZ2cmT1gillPy/ct4f4AzD6iGAo4f4XP82ratzgC0JTlJALr/Jc1BXZ9L
5Q+KoK5W93Xo2S4MyBIPzzpMyGqksj7xNLs/mE0CAwEAAaNNMEswCQYDVR0TBAIw
ADAdBgNVHQ4EFgQUa1NlxqrocpBW09odJ0eGUhWCOUcwHwYDVR0jBBgwFoAUjUM3
XhMiG7fHDIwp5+TE0FrQ2vswDQYJKoZIhvcNAQELBQADggEBAG/WlOPB8eUaKojm
USewUXqCvY4PjryWe8VAXQeIU/624OulL4RSHkmOdgD5k9uhj0wP95hXvjOdZuwb
LBecwjh2h0C9anT7YHGHmw2D+aY6ewiXyfafETDDsP1etshKibb2LRgEnZtLZHP4
ZsgDw5OcUtbndfyuIyjFe1kLsotOZ1kp08gS7Q6chS/1CZ+Jto7GE+Y5kJeSiYZ1
PFYYFSNqn4q06qJ00UVPtbRZePKlzaUbp2Qku8vSrYQ7mpES1rfgOX+s3UP3GiN6
sneqnQSLvYarml2o0HJ1UPAX424fgkBBaYLtUR6SeDBG1qUmClPrOEKxijX2+QTo
dZhmRDY=
-----END CERTIFICATE-----
