Certificate:
    Data:
        Version: 3 (0x2)
        Serial Number: 6 (0x6)
        Signature Algorithm: sha256WithRSAEncryption
        Issuer: C=PT, ST=Coimbra, L=Coimbra, O=UC, OU=DEI, CN=ca/emailAddress=uc2024156583@student.uc.pt
        Validity
            Not Before: Mar  4 21:53:36 2025 GMT
            Not After : Mar  4 21:53:36 2026 GMT
        Subject: C=PT, ST=Coimbra, O=UC, OU=DEI, CN=server_apache2/emailAddress=uc2024156583@student.uc.pt
        Subject Public Key Info:
            Public Key Algorithm: rsaEncryption
                Public-Key: (2048 bit)
                Modulus:
                    00:9c:97:c0:0e:d4:ed:3d:32:e2:57:ab:96:5c:f7:
                    27:ed:0e:c0:74:59:70:2d:e2:68:13:de:b6:c0:99:
                    b6:9b:75:6f:81:8b:c4:7c:28:fd:e3:ee:34:81:ec:
                    f2:e5:96:1d:d5:9a:7f:a8:d2:25:52:13:5f:b7:bc:
                    06:a5:a4:e3:0b:8d:32:2e:49:b1:68:a1:18:ee:fa:
                    35:99:71:54:04:2f:08:79:23:4e:4d:56:f1:03:bd:
                    97:84:d0:12:38:a2:0d:42:de:4e:7b:01:6f:48:80:
                    79:8c:5e:83:23:51:63:b3:ee:2b:e6:54:f8:6e:a5:
                    b4:0f:3c:ce:4a:b3:c3:d4:e9:06:78:02:6c:0f:62:
                    98:80:0b:96:10:43:8e:4d:ab:2c:81:c5:f6:6e:5b:
                    22:33:5c:ea:9d:8c:3c:55:7e:11:90:78:d2:b4:e0:
                    f3:15:a5:06:75:f2:b2:57:e2:89:19:9b:7e:c1:3d:
                    d0:b5:ef:39:00:c3:32:a9:5e:b0:47:ad:5e:16:e4:
                    c3:9c:3a:fa:af:2a:8b:8a:eb:56:05:17:d6:33:2a:
                    b1:57:fe:38:52:ea:79:61:5d:e9:88:4f:93:0f:1f:
                    a8:ac:15:78:2d:03:16:b8:94:a4:95:16:9b:b9:05:
                    11:25:8a:99:fc:0c:80:47:f1:9c:df:68:a3:5c:cb:
                    ab:9d
                Exponent: 65537 (0x10001)
        X509v3 extensions:
            X509v3 Subject Alternative Name: 
                DNS:www.security.uc.pt
            X509v3 Subject Key Identifier: 
                9A:1C:F5:F7:2F:18:61:9A:29:69:FC:E1:F1:DD:CD:20:FD:03:AC:6E
            X509v3 Authority Key Identifier: 
                8D:43:37:5E:13:22:1B:B7:C7:0C:8C:29:E7:E4:C4:D0:5A:D0:DA:FB
    Signature Algorithm: sha256WithRSAEncryption
    Signature Value:
        dd:95:38:7a:9b:61:df:65:25:54:0f:ec:d6:d1:f3:79:6c:18:
        64:f8:8e:88:8f:62:dd:9d:d8:9c:9c:27:af:1b:5d:c5:32:97:
        b5:4a:0f:b6:67:e9:88:98:27:49:fb:74:33:5a:47:a9:8e:c9:
        2a:3d:d9:d7:02:0e:f7:da:38:a7:88:f0:1a:c4:0d:f1:cd:b8:
        d0:00:da:42:8f:96:1a:8a:7a:8a:9e:69:0a:0f:f5:13:36:ab:
        78:74:48:d7:48:1a:6e:ad:e0:d0:c3:50:81:09:3a:66:d2:bc:
        46:b8:cc:0f:e0:e8:d8:b9:ee:c1:99:fb:b9:9e:f0:f4:65:e7:
        c0:28:60:ba:8f:a8:0c:fc:30:48:06:19:84:1f:a5:f5:78:b3:
        22:2a:b0:7b:22:41:6f:52:6a:9f:b8:5f:69:a6:1d:cd:4d:ae:
        43:76:38:ac:fa:d2:ff:45:5d:79:e6:1b:79:b3:eb:ba:67:c3:
        2a:bb:03:96:80:e3:2c:b3:29:69:1f:0f:1f:c2:e1:47:a3:3a:
        4f:29:4b:14:34:b7:68:f5:34:41:53:1d:18:7e:36:4f:f4:6d:
        46:9a:12:73:76:03:6e:4c:68:e4:6e:66:8d:f4:3d:d2:9c:ac:
        81:56:5b:da:e7:bb:ba:02:d3:c9:80:30:58:7f:d8:7e:14:54:
        f9:c9:fb:79
-----BEGIN CERTIFICATE-----
MIID3zCCAsegAwIBAgIBBjANBgkqhkiG9w0BAQsFADCBhDELMAkGA1UEBhMCUFQx
EDAOBgNVBAgMB0NvaW1icmExEDAOBgNVBAcMB0NvaW1icmExCzAJBgNVBAoMAlVD
MQwwCgYDVQQLDANERUkxCzAJBgNVBAMMAmNhMSkwJwYJKoZIhvcNAQkBFhp1YzIw
MjQxNTY1ODNAc3R1ZGVudC51Yy5wdDAeFw0yNTAzMDQyMTUzMzZaFw0yNjAzMDQy
MTUzMzZaMH4xCzAJBgNVBAYTAlBUMRAwDgYDVQQIDAdDb2ltYnJhMQswCQYDVQQK
DAJVQzEMMAoGA1UECwwDREVJMRcwFQYDVQQDDA5zZXJ2ZXJfYXBhY2hlMjEpMCcG
CSqGSIb3DQEJARYadWMyMDI0MTU2NTgzQHN0dWRlbnQudWMucHQwggEiMA0GCSqG
SIb3DQEBAQUAA4IBDwAwggEKAoIBAQCcl8AO1O09MuJXq5Zc9yftDsB0WXAt4mgT
3rbAmbabdW+Bi8R8KP3j7jSB7PLllh3Vmn+o0iVSE1+3vAalpOMLjTIuSbFooRju
+jWZcVQELwh5I05NVvEDvZeE0BI4og1C3k57AW9IgHmMXoMjUWOz7ivmVPhupbQP
PM5Ks8PU6QZ4AmwPYpiAC5YQQ45NqyyBxfZuWyIzXOqdjDxVfhGQeNK04PMVpQZ1
8rJX4okZm37BPdC17zkAwzKpXrBHrV4W5MOcOvqvKouK61YFF9YzKrFX/jhS6nlh
XemIT5MPH6isFXgtAxa4lKSVFpu5BRElipn8DIBH8ZzfaKNcy6udAgMBAAGjYTBf
MB0GA1UdEQQWMBSCEnd3dy5zZWN1cml0eS51Yy5wdDAdBgNVHQ4EFgQUmhz19y8Y
YZopafzh8d3NIP0DrG4wHwYDVR0jBBgwFoAUjUM3XhMiG7fHDIwp5+TE0FrQ2vsw
DQYJKoZIhvcNAQELBQADggEBAN2VOHqbYd9lJVQP7NbR83lsGGT4joiPYt2d2Jyc
J68bXcUyl7VKD7Zn6YiYJ0n7dDNaR6mOySo92dcCDvfaOKeI8BrEDfHNuNAA2kKP
lhqKeoqeaQoP9RM2q3h0SNdIGm6t4NDDUIEJOmbSvEa4zA/g6Ni57sGZ+7me8PRl
58AoYLqPqAz8MEgGGYQfpfV4syIqsHsiQW9Sap+4X2mmHc1NrkN2OKz60v9FXXnm
G3mz67pnwyq7A5aA4yyzKWkfDx/C4UejOk8pSxQ0t2j1NEFTHRh+Nk/0bUaaEnN2
A25MaORuZo30PdKcrIFWW9rnu7oC08mAMFh/2H4UVPnJ+3k=
-----END CERTIFICATE-----
