Certificate:
    Data:
        Version: 3 (0x2)
        Serial Number: 7 (0x7)
        Signature Algorithm: sha256WithRSAEncryption
        Issuer: C=PT, ST=Coimbra, L=Coimbra, O=UC, OU=DEI, CN=ca/emailAddress=uc2024156583@student.uc.pt
        Validity
            Not Before: Mar  6 23:06:51 2025 GMT
            Not After : Mar  6 23:06:51 2026 GMT
        Subject: C=PT, ST=Coimbra, O=UC, OU=DEI, CN=client_apache_revoke/emailAddress=uc2024156583@student.uc.pt
        Subject Public Key Info:
            Public Key Algorithm: rsaEncryption
                Public-Key: (2048 bit)
                Modulus:
                    00:b8:24:8a:fc:71:a1:9e:da:f5:36:88:bc:88:fc:
                    2a:79:40:b5:e7:82:e2:af:cb:fb:46:80:f2:2f:86:
                    2c:2b:f0:58:b7:76:22:e9:9b:97:fe:84:f2:d5:70:
                    87:3a:96:5a:12:b6:36:ae:76:68:66:26:d2:96:97:
                    64:e9:67:9f:09:83:70:d1:fb:ee:01:1e:80:05:44:
                    bd:2b:86:9c:7f:15:25:86:ca:11:3a:d9:db:97:f9:
                    f4:4d:20:ae:7a:f0:7a:4c:c7:34:9d:8c:73:5d:4a:
                    43:4e:6e:5e:9b:9e:da:c8:31:cf:cb:a0:5b:23:5b:
                    59:32:d5:71:42:9a:a7:ef:2c:d0:b2:f5:e2:97:8e:
                    2e:86:ab:98:cf:1d:63:f8:32:3c:4e:1c:a2:86:a8:
                    53:c7:e2:9d:59:7b:74:f6:6d:fa:a6:58:a8:d0:1f:
                    d0:22:e9:d3:89:d7:28:7d:22:e4:b1:49:26:bb:7d:
                    80:b4:6c:a6:90:cf:aa:85:9d:eb:95:ec:4a:79:b0:
                    67:19:74:c2:d2:5e:be:3f:09:b4:70:32:62:67:df:
                    8e:73:02:8e:0f:14:d1:06:15:f5:6c:33:f3:58:a9:
                    cb:36:de:ee:cb:85:38:ed:82:2e:79:e3:39:cb:f4:
                    35:8f:da:32:2c:d9:e7:c5:79:a0:12:ec:48:fd:59:
                    7e:1d
                Exponent: 65537 (0x10001)
        X509v3 extensions:
            X509v3 Basic Constraints: 
                CA:FALSE
            X509v3 Subject Key Identifier: 
                85:BD:7E:1D:CA:55:23:AA:6C:C5:03:57:B3:F1:5C:20:4A:30:5A:5F
            X509v3 Authority Key Identifier: 
                8D:43:37:5E:13:22:1B:B7:C7:0C:8C:29:E7:E4:C4:D0:5A:D0:DA:FB
    Signature Algorithm: sha256WithRSAEncryption
    Signature Value:
        3d:3e:b8:06:16:98:73:1d:b6:95:b0:9f:e1:dc:ff:09:0a:61:
        b7:df:bb:a3:9a:9f:0a:cb:bd:52:49:0a:cf:10:bc:2a:7a:3b:
        83:19:e5:06:db:7e:63:a4:f3:60:3d:1a:77:82:31:f4:73:52:
        4c:68:de:6e:3c:0b:5d:6c:9b:d5:52:30:65:09:b4:8e:dc:30:
        dc:02:26:2e:91:22:9c:b3:83:33:8e:ed:ce:85:74:c8:d1:40:
        c7:bb:c3:51:d9:da:39:f8:8e:84:ca:6c:a8:3a:14:a0:8e:6e:
        ce:75:2f:20:9c:d2:45:0e:6f:03:f2:40:c9:04:48:31:a8:ca:
        c9:61:16:5f:f2:5d:62:fc:7b:8b:54:9e:2c:b9:5f:2d:d1:41:
        25:85:c9:95:ba:6c:b8:fb:c5:c1:f2:9a:9f:b6:3c:76:42:53:
        a3:ae:19:97:7a:49:44:15:34:0e:5c:f6:59:dd:7e:a9:60:1d:
        4c:73:89:bb:3a:b5:48:9b:cb:ae:62:61:dc:a7:d9:78:9a:af:
        c5:5a:67:b0:52:23:b1:be:0e:1d:14:46:30:73:04:16:e8:5d:
        a9:65:dc:89:2e:7a:9f:af:06:51:97:44:13:0d:ad:62:b4:d2:
        fb:1d:20:3c:ec:fb:a5:35:1e:38:f5:27:c7:79:c9:43:88:6b:
        09:27:4c:69
-----BEGIN CERTIFICATE-----
MIID0jCCArqgAwIBAgIBBzANBgkqhkiG9w0BAQsFADCBhDELMAkGA1UEBhMCUFQx
EDAOBgNVBAgMB0NvaW1icmExEDAOBgNVBAcMB0NvaW1icmExCzAJBgNVBAoMAlVD
MQwwCgYDVQQLDANERUkxCzAJBgNVBAMMAmNhMSkwJwYJKoZIhvcNAQkBFhp1YzIw
MjQxNTY1ODNAc3R1ZGVudC51Yy5wdDAeFw0yNTAzMDYyMzA2NTFaFw0yNjAzMDYy
MzA2NTFaMIGEMQswCQYDVQQGEwJQVDEQMA4GA1UECAwHQ29pbWJyYTELMAkGA1UE
CgwCVUMxDDAKBgNVBAsMA0RFSTEdMBsGA1UEAwwUY2xpZW50X2FwYWNoZV9yZXZv
a2UxKTAnBgkqhkiG9w0BCQEWGnVjMjAyNDE1NjU4M0BzdHVkZW50LnVjLnB0MIIB
IjANBgkqhkiG9w0BAQEFAAOCAQ8AMIIBCgKCAQEAuCSK/HGhntr1Noi8iPwqeUC1
54Lir8v7RoDyL4YsK/BYt3Yi6ZuX/oTy1XCHOpZaErY2rnZoZibSlpdk6WefCYNw
0fvuAR6ABUS9K4acfxUlhsoROtnbl/n0TSCuevB6TMc0nYxzXUpDTm5em57ayDHP
y6BbI1tZMtVxQpqn7yzQsvXil44uhquYzx1j+DI8ThyihqhTx+KdWXt09m36plio
0B/QIunTidcofSLksUkmu32AtGymkM+qhZ3rlexKebBnGXTC0l6+Pwm0cDJiZ9+O
cwKODxTRBhX1bDPzWKnLNt7uy4U47YIueeM5y/Q1j9oyLNnnxXmgEuxI/Vl+HQID
AQABo00wSzAJBgNVHRMEAjAAMB0GA1UdDgQWBBSFvX4dylUjqmzFA1ez8VwgSjBa
XzAfBgNVHSMEGDAWgBSNQzdeEyIbt8cMjCnn5MTQWtDa+zANBgkqhkiG9w0BAQsF
AAOCAQEAPT64BhaYcx22lbCf4dz/CQpht9+7o5qfCsu9UkkKzxC8Kno7gxnlBtt+
Y6TzYD0ad4Ix9HNSTGjebjwLXWyb1VIwZQm0jtww3AImLpEinLODM47tzoV0yNFA
x7vDUdnaOfiOhMpsqDoUoI5uznUvIJzSRQ5vA/JAyQRIMajKyWEWX/JdYvx7i1Se
LLlfLdFBJYXJlbpsuPvFwfKan7Y8dkJTo64Zl3pJRBU0Dlz2Wd1+qWAdTHOJuzq1
SJvLrmJh3KfZeJqvxVpnsFIjsb4OHRRGMHMEFuhdqWXciS56n68GUZdEEw2tYrTS
+x0gPOz7pTUeOPUnx3nJQ4hrCSdMaQ==
-----END CERTIFICATE-----
